; Function Attrs: nounwind uwtable
define void @Gia_ManTestDoms(ptr noundef %0) local_unnamed_addr #2 {
  tail call void @Gia_ManCleanMark1(ptr noundef %0) #26
  %2 = getelementptr i8, ptr %0, i64 32
  %3 = getelementptr i8, ptr %0, i64 16
  %4 = getelementptr i8, ptr %0, i64 64
  %.val1113 = load i32, ptr %3, align 8, !tbaa !58
  %.val1214 = load ptr, ptr %4, align 8, !tbaa !44
  %5 = getelementptr i8, ptr %.val1214, i64 4
  %.val12.val15 = load i32, ptr %5, align 4, !tbaa !33
  %6 = icmp sgt i32 %.val12.val15, %.val1113
  br i1 %6, label %.lr.ph, label %.critedge

.lr.ph:                                           ; preds = %1, %7
  %indvars.iv = phi i64 [ %indvars.iv.next, %7 ], [ 0, %1 ]
  %.val1217 = phi ptr [ %.val12, %7 ], [ %.val1214, %1 ]
  %.val = load ptr, ptr %2, align 8, !tbaa !3
  %.not = icmp eq ptr %.val, null
  br i1 %.not, label %.critedge, label %7

7:                                                ; preds = %.lr.ph
  %8 = getelementptr i8, ptr %.val1217, i64 8
  %.val10.val = load ptr, ptr %8, align 8, !tbaa !29
  %9 = getelementptr inbounds nuw i32, ptr %.val10.val, i64 %indvars.iv
  %10 = load i32, ptr %9, align 4, !tbaa !30
  %11 = sext i32 %10 to i64
  %12 = getelementptr inbounds %struct.Gia_Obj_t_, ptr %.val, i64 %11
  %13 = load i64, ptr %12, align 4
  %14 = or i64 %13, 4611686018427387904
  store i64 %14, ptr %12, align 4
  %indvars.iv.next = add nuw nsw i64 %indvars.iv, 1
  %.val11 = load i32, ptr %3, align 8, !tbaa !58
  %.val12 = load ptr, ptr %4, align 8, !tbaa !44
  %15 = getelementptr i8, ptr %.val12, i64 4
  %.val12.val = load i32, ptr %15, align 4, !tbaa !33
  %16 = sub nsw i32 %.val12.val, %.val11
  %17 = sext i32 %16 to i64
  %18 = icmp slt i64 %indvars.iv.next, %17
  br i1 %18, label %.lr.ph, label %.critedge, !llvm.loop !67

.critedge:                                        ; preds = %.lr.ph, %7, %1
  tail call void @Gia_ManComputeDoms(ptr noundef nonnull %0)
  %19 = tail call noalias noundef ptr @Gia_ManCollectDoms(ptr noundef nonnull %0)
  %20 = getelementptr inbounds nuw i8, ptr %19, i64 8
  %21 = load ptr, ptr %20, align 8, !tbaa !29
  %.not.i = icmp eq ptr %21, null
  br i1 %.not.i, label %Vec_IntFree.exit, label %22

22:                                               ; preds = %.critedge
  tail call void @free(ptr noundef nonnull %21) #26
  br label %Vec_IntFree.exit

Vec_IntFree.exit:                                 ; preds = %.critedge, %22
  tail call void @free(ptr noundef nonnull %19) #26
  tail call void @Gia_ManCleanMark1(ptr noundef nonnull %0) #26
  ret void
}